target datalayout = "e-m:e-p270:32:32-p271:32:32-p272:64:64-i64:64-i128:128-f80:128-n8:16:32:64-S128"
target triple = "x86_64-pc-linux-gnu"

%struct.addrinfo = type { i32, i32, i32, i32, i32, ptr, ptr, ptr }

; Function Attrs: nounwind uwtable
define i32 @BIO_ADDRINFO_family(ptr noundef %0) #0 {
  %2 = alloca i32, align 4
  %3 = alloca ptr, align 8
  store ptr %0, ptr %3, align 8, !tbaa !28
  %4 = load ptr, ptr %3, align 8, !tbaa !28
  %5 = icmp ne ptr %4, null
  br i1 %5, label %6, label %10

6:                                                ; preds = %1
  %7 = load ptr, ptr %3, align 8, !tbaa !28
  %8 = getelementptr inbounds nuw %struct.addrinfo, ptr %7, i32 0, i32 1
  %9 = load i32, ptr %8, align 4, !tbaa !32
  store i32 %9, ptr %2, align 4
  br label %11

10:                                               ; preds = %1
  store i32 0, ptr %2, align 4
  br label %11

11:                                               ; preds = %10, %6
  %12 = load i32, ptr %2, align 4
  ret i32 %12
}